target datalayout = "e-m:e-p270:32:32-p271:32:32-p272:64:64-i64:64-i128:128-f80:128-n8:16:32:64-S128"
target triple = "x86_64-pc-linux-gnu"

; Function Attrs: nounwind uwtable
define i32 @ssl3_alert_code(i32 noundef %0) #0 {
  %2 = alloca i32, align 4
  %3 = alloca i32, align 4
  store i32 %0, ptr %3, align 4, !tbaa !8
  %4 = load i32, ptr %3, align 4, !tbaa !8
  switch i32 %4, label %39 [
    i32 0, label %5
    i32 10, label %6
    i32 20, label %7
    i32 21, label %8
    i32 22, label %9
    i32 30, label %10
    i32 40, label %11
    i32 41, label %12
    i32 42, label %13
    i32 43, label %14
    i32 44, label %15
    i32 45, label %16
    i32 46, label %17
    i32 47, label %18
    i32 48, label %19
    i32 49, label %20
    i32 50, label %21
    i32 51, label %22
    i32 60, label %23
    i32 70, label %24
    i32 71, label %25
    i32 80, label %26
    i32 90, label %27
    i32 100, label %28
    i32 110, label %29
    i32 111, label %30
    i32 112, label %31
    i32 113, label %32
    i32 114, label %33
    i32 115, label %34
    i32 86, label %35
    i32 120, label %36
    i32 116, label %37
    i32 109, label %38
  ]

5:                                                ; preds = %1
  store i32 0, ptr %2, align 4
  br label %40

6:                                                ; preds = %1
  store i32 10, ptr %2, align 4
  br label %40

7:                                                ; preds = %1
  store i32 20, ptr %2, align 4
  br label %40

8:                                                ; preds = %1
  store i32 20, ptr %2, align 4
  br label %40

9:                                                ; preds = %1
  store i32 20, ptr %2, align 4
  br label %40

10:                                               ; preds = %1
  store i32 30, ptr %2, align 4
  br label %40

11:                                               ; preds = %1
  store i32 40, ptr %2, align 4
  br label %40

12:                                               ; preds = %1
  store i32 41, ptr %2, align 4
  br label %40

13:                                               ; preds = %1
  store i32 42, ptr %2, align 4
  br label %40

14:                                               ; preds = %1
  store i32 43, ptr %2, align 4
  br label %40

15:                                               ; preds = %1
  store i32 44, ptr %2, align 4
  br label %40

16:                                               ; preds = %1
  store i32 45, ptr %2, align 4
  br label %40

17:                                               ; preds = %1
  store i32 46, ptr %2, align 4
  br label %40

18:                                               ; preds = %1
  store i32 47, ptr %2, align 4
  br label %40

19:                                               ; preds = %1
  store i32 42, ptr %2, align 4
  br label %40

20:                                               ; preds = %1
  store i32 40, ptr %2, align 4
  br label %40

21:                                               ; preds = %1
  store i32 40, ptr %2, align 4
  br label %40

22:                                               ; preds = %1
  store i32 40, ptr %2, align 4
  br label %40

23:                                               ; preds = %1
  store i32 40, ptr %2, align 4
  br label %40

24:                                               ; preds = %1
  store i32 40, ptr %2, align 4
  br label %40

25:                                               ; preds = %1
  store i32 40, ptr %2, align 4
  br label %40

26:                                               ; preds = %1
  store i32 40, ptr %2, align 4
  br label %40

27:                                               ; preds = %1
  store i32 40, ptr %2, align 4
  br label %40

28:                                               ; preds = %1
  store i32 -1, ptr %2, align 4
  br label %40

29:                                               ; preds = %1
  store i32 40, ptr %2, align 4
  br label %40

30:                                               ; preds = %1
  store i32 40, ptr %2, align 4
  br label %40

31:                                               ; preds = %1
  store i32 40, ptr %2, align 4
  br label %40

32:                                               ; preds = %1
  store i32 40, ptr %2, align 4
  br label %40

33:                                               ; preds = %1
  store i32 40, ptr %2, align 4
  br label %40

34:                                               ; preds = %1
  store i32 115, ptr %2, align 4
  br label %40

35:                                               ; preds = %1
  store i32 86, ptr %2, align 4
  br label %40

36:                                               ; preds = %1
  store i32 120, ptr %2, align 4
  br label %40

37:                                               ; preds = %1
  store i32 40, ptr %2, align 4
  br label %40

38:                                               ; preds = %1
  store i32 40, ptr %2, align 4
  br label %40

39:                                               ; preds = %1
  store i32 -1, ptr %2, align 4
  br label %40

40:                                               ; preds = %39, %38, %37, %36, %35, %34, %33, %32, %31, %30, %29, %28, %27, %26, %25, %24, %23, %22, %21, %20, %19, %18, %17, %16, %15, %14, %13, %12, %11, %10, %9, %8, %7, %6, %5
  %41 = load i32, ptr %2, align 4
  ret i32 %41
}