; Function Attrs: mustprogress nofree norecurse nosync nounwind willreturn memory(none) uwtable
define range(i32 -1, 121) i32 @ssl3_alert_code(i32 noundef %0) local_unnamed_addr #5 {
  switch i32 %0, label %5 [
    i32 0, label %6
    i32 10, label %6
    i32 20, label %2
    i32 21, label %2
    i32 22, label %2
    i32 30, label %6
    i32 40, label %3
    i32 41, label %6
    i32 42, label %4
    i32 43, label %6
    i32 44, label %6
    i32 45, label %6
    i32 46, label %6
    i32 47, label %6
    i32 48, label %4
    i32 49, label %3
    i32 50, label %3
    i32 51, label %3
    i32 60, label %3
    i32 70, label %3
    i32 71, label %3
    i32 80, label %3
    i32 90, label %3
    i32 109, label %3
    i32 110, label %3
    i32 111, label %3
    i32 112, label %3
    i32 113, label %3
    i32 114, label %3
    i32 115, label %6
    i32 86, label %6
    i32 120, label %6
    i32 116, label %3
  ]

2:                                                ; preds = %1, %1, %1
  br label %6

3:                                                ; preds = %1, %1, %1, %1, %1, %1, %1, %1, %1, %1, %1, %1, %1, %1, %1, %1
  br label %6

4:                                                ; preds = %1, %1
  br label %6

5:                                                ; preds = %1
  br label %6

6:                                                ; preds = %1, %1, %1, %1, %1, %1, %1, %1, %1, %1, %1, %1, %5, %4, %3, %2
  %.0 = phi i32 [ -1, %5 ], [ 42, %4 ], [ 40, %3 ], [ 20, %2 ], [ %0, %1 ], [ %0, %1 ], [ %0, %1 ], [ %0, %1 ], [ %0, %1 ], [ %0, %1 ], [ %0, %1 ], [ %0, %1 ], [ %0, %1 ], [ %0, %1 ], [ %0, %1 ], [ %0, %1 ]
  ret i32 %.0
}